; ModuleID = 'source-C-CXX/7/985.c'
source_filename = "source-C-CXX/7/985.c"
target datalayout = "e-m:e-p270:32:32-p271:32:32-p272:64:64-i64:64-f80:128-n8:16:32:64-S128"
target triple = "x86_64-pc-linux-gnu"

@.str = private unnamed_addr constant [5 x i8] c"%d%d\00", align 1
@.str.1 = private unnamed_addr constant [3 x i8] c"%d\00", align 1
@.str.2 = private unnamed_addr constant [4 x i8] c"%d \00", align 1

; Function Attrs: nofree nounwind sspstrong uwtable
define dso_local void @main() local_unnamed_addr #0 {
  %1 = alloca [200 x i32], align 16
  %2 = alloca [200 x i32], align 16
  %3 = alloca i32, align 4
  %4 = alloca i32, align 4
  %5 = bitcast [200 x i32]* %1 to i8*
  call void @llvm.lifetime.start.p0i8(i64 800, i8* nonnull %5) #4
  %6 = bitcast [200 x i32]* %2 to i8*
  call void @llvm.lifetime.start.p0i8(i64 800, i8* nonnull %6) #4
  %7 = bitcast i32* %3 to i8*
  call void @llvm.lifetime.start.p0i8(i64 4, i8* nonnull %7) #4
  %8 = bitcast i32* %4 to i8*
  call void @llvm.lifetime.start.p0i8(i64 4, i8* nonnull %8) #4
  %9 = call i32 (i8*, ...) @__isoc99_scanf(i8* getelementptr inbounds ([5 x i8], [5 x i8]* @.str, i64 0, i64 0), i32* nonnull %3, i32* nonnull %4)
  %10 = getelementptr inbounds [200 x i32], [200 x i32]* %1, i64 0, i64 0
  %11 = load i32, i32* %3, align 4, !tbaa !5
  %12 = icmp sgt i32 %11, 0
  br i1 %12, label %13, label %21

13:                                               ; preds = %0
  %14 = zext i32 %11 to i64
  br label %15

15:                                               ; preds = %15, %13
  %16 = phi i64 [ 0, %13 ], [ %19, %15 ]
  %17 = getelementptr inbounds [200 x i32], [200 x i32]* %1, i64 0, i64 %16
  %18 = call i32 (i8*, ...) @__isoc99_scanf(i8* getelementptr inbounds ([3 x i8], [3 x i8]* @.str.1, i64 0, i64 0), i32* nonnull %17) #4
  %19 = add nuw nsw i64 %16, 1
  %20 = icmp eq i64 %19, %14
  br i1 %20, label %21, label %15, !llvm.loop !9

21:                                               ; preds = %15, %0
  %22 = getelementptr inbounds [200 x i32], [200 x i32]* %2, i64 0, i64 0
  %23 = load i32, i32* %4, align 4, !tbaa !5
  %24 = icmp sgt i32 %23, 0
  br i1 %24, label %25, label %33

25:                                               ; preds = %21
  %26 = zext i32 %23 to i64
  br label %27

27:                                               ; preds = %27, %25
  %28 = phi i64 [ 0, %25 ], [ %31, %27 ]
  %29 = getelementptr inbounds [200 x i32], [200 x i32]* %2, i64 0, i64 %28
  %30 = call i32 (i8*, ...) @__isoc99_scanf(i8* getelementptr inbounds ([3 x i8], [3 x i8]* @.str.1, i64 0, i64 0), i32* nonnull %29) #4
  %31 = add nuw nsw i64 %28, 1
  %32 = icmp eq i64 %31, %26
  br i1 %32, label %33, label %27, !llvm.loop !9

33:                                               ; preds = %27, %21
  %34 = load i32, i32* %3, align 4, !tbaa !5
  %35 = icmp sgt i32 %34, 1
  br i1 %35, label %36, label %75

36:                                               ; preds = %33
  %37 = add nsw i32 %34, -1
  %38 = zext i32 %37 to i64
  %39 = and i64 %38, 1
  %40 = icmp eq i32 %37, 1
  %41 = and i64 %38, 4294967294
  %42 = icmp eq i64 %39, 0
  br label %43

43:                                               ; preds = %72, %36
  %44 = phi i32 [ %73, %72 ], [ 0, %36 ]
  %45 = load i32, i32* %10, align 16, !tbaa !5
  br i1 %40, label %62, label %46

46:                                               ; preds = %43, %146
  %47 = phi i32 [ %147, %146 ], [ %45, %43 ]
  %48 = phi i64 [ %58, %146 ], [ 0, %43 ]
  %49 = phi i64 [ %148, %146 ], [ %41, %43 ]
  %50 = or i64 %48, 1
  %51 = getelementptr inbounds [200 x i32], [200 x i32]* %1, i64 0, i64 %50
  %52 = load i32, i32* %51, align 4, !tbaa !5
  %53 = icmp sgt i32 %47, %52
  br i1 %53, label %54, label %56

54:                                               ; preds = %46
  %55 = getelementptr inbounds [200 x i32], [200 x i32]* %1, i64 0, i64 %48
  store i32 %52, i32* %55, align 8, !tbaa !5
  store i32 %47, i32* %51, align 4, !tbaa !5
  br label %56

56:                                               ; preds = %54, %46
  %57 = phi i32 [ %47, %54 ], [ %52, %46 ]
  %58 = add nuw nsw i64 %48, 2
  %59 = getelementptr inbounds [200 x i32], [200 x i32]* %1, i64 0, i64 %58
  %60 = load i32, i32* %59, align 8, !tbaa !5
  %61 = icmp sgt i32 %57, %60
  br i1 %61, label %144, label %146

62:                                               ; preds = %146, %43
  %63 = phi i32 [ %45, %43 ], [ %147, %146 ]
  %64 = phi i64 [ 0, %43 ], [ %58, %146 ]
  br i1 %42, label %72, label %65

65:                                               ; preds = %62
  %66 = add nuw nsw i64 %64, 1
  %67 = getelementptr inbounds [200 x i32], [200 x i32]* %1, i64 0, i64 %66
  %68 = load i32, i32* %67, align 4, !tbaa !5
  %69 = icmp sgt i32 %63, %68
  br i1 %69, label %70, label %72

70:                                               ; preds = %65
  %71 = getelementptr inbounds [200 x i32], [200 x i32]* %1, i64 0, i64 %64
  store i32 %68, i32* %71, align 4, !tbaa !5
  store i32 %63, i32* %67, align 4, !tbaa !5
  br label %72

72:                                               ; preds = %70, %65, %62
  %73 = add nuw nsw i32 %44, 1
  %74 = icmp eq i32 %73, %37
  br i1 %74, label %75, label %43, !llvm.loop !11

75:                                               ; preds = %72, %33
  %76 = load i32, i32* %4, align 4, !tbaa !5
  %77 = icmp sgt i32 %76, 1
  br i1 %77, label %78, label %117

78:                                               ; preds = %75
  %79 = add nsw i32 %76, -1
  %80 = zext i32 %79 to i64
  %81 = and i64 %80, 1
  %82 = icmp eq i32 %79, 1
  %83 = and i64 %80, 4294967294
  %84 = icmp eq i64 %81, 0
  br label %85

85:                                               ; preds = %114, %78
  %86 = phi i32 [ %115, %114 ], [ 0, %78 ]
  %87 = load i32, i32* %22, align 16, !tbaa !5
  br i1 %82, label %104, label %88

88:                                               ; preds = %85, %152
  %89 = phi i32 [ %153, %152 ], [ %87, %85 ]
  %90 = phi i64 [ %100, %152 ], [ 0, %85 ]
  %91 = phi i64 [ %154, %152 ], [ %83, %85 ]
  %92 = or i64 %90, 1
  %93 = getelementptr inbounds [200 x i32], [200 x i32]* %2, i64 0, i64 %92
  %94 = load i32, i32* %93, align 4, !tbaa !5
  %95 = icmp sgt i32 %89, %94
  br i1 %95, label %96, label %98

96:                                               ; preds = %88
  %97 = getelementptr inbounds [200 x i32], [200 x i32]* %2, i64 0, i64 %90
  store i32 %94, i32* %97, align 8, !tbaa !5
  store i32 %89, i32* %93, align 4, !tbaa !5
  br label %98

98:                                               ; preds = %96, %88
  %99 = phi i32 [ %89, %96 ], [ %94, %88 ]
  %100 = add nuw nsw i64 %90, 2
  %101 = getelementptr inbounds [200 x i32], [200 x i32]* %2, i64 0, i64 %100
  %102 = load i32, i32* %101, align 8, !tbaa !5
  %103 = icmp sgt i32 %99, %102
  br i1 %103, label %150, label %152

104:                                              ; preds = %152, %85
  %105 = phi i32 [ %87, %85 ], [ %153, %152 ]
  %106 = phi i64 [ 0, %85 ], [ %100, %152 ]
  br i1 %84, label %114, label %107

107:                                              ; preds = %104
  %108 = add nuw nsw i64 %106, 1
  %109 = getelementptr inbounds [200 x i32], [200 x i32]* %2, i64 0, i64 %108
  %110 = load i32, i32* %109, align 4, !tbaa !5
  %111 = icmp sgt i32 %105, %110
  br i1 %111, label %112, label %114

112:                                              ; preds = %107
  %113 = getelementptr inbounds [200 x i32], [200 x i32]* %2, i64 0, i64 %106
  store i32 %110, i32* %113, align 4, !tbaa !5
  store i32 %105, i32* %109, align 4, !tbaa !5
  br label %114

114:                                              ; preds = %112, %107, %104
  %115 = add nuw nsw i32 %86, 1
  %116 = icmp eq i32 %115, %79
  br i1 %116, label %117, label %85, !llvm.loop !11

117:                                              ; preds = %114, %75
  %118 = icmp sgt i32 %34, 0
  br i1 %118, label %119, label %121

119:                                              ; preds = %117
  %120 = zext i32 %34 to i64
  br label %125

121:                                              ; preds = %125, %117
  %122 = add i32 %76, -1
  br i1 %77, label %123, label %139

123:                                              ; preds = %121
  %124 = zext i32 %122 to i64
  br label %132

125:                                              ; preds = %125, %119
  %126 = phi i64 [ 0, %119 ], [ %130, %125 ]
  %127 = getelementptr inbounds [200 x i32], [200 x i32]* %1, i64 0, i64 %126
  %128 = load i32, i32* %127, align 4, !tbaa !5
  %129 = call i32 (i8*, ...) @printf(i8* nonnull dereferenceable(1) getelementptr inbounds ([4 x i8], [4 x i8]* @.str.2, i64 0, i64 0), i32 %128) #4
  %130 = add nuw nsw i64 %126, 1
  %131 = icmp eq i64 %130, %120
  br i1 %131, label %121, label %125, !llvm.loop !12

132:                                              ; preds = %132, %123
  %133 = phi i64 [ 0, %123 ], [ %137, %132 ]
  %134 = getelementptr inbounds [200 x i32], [200 x i32]* %2, i64 0, i64 %133
  %135 = load i32, i32* %134, align 4, !tbaa !5
  %136 = call i32 (i8*, ...) @printf(i8* nonnull dereferenceable(1) getelementptr inbounds ([4 x i8], [4 x i8]* @.str.2, i64 0, i64 0), i32 %135) #4
  %137 = add nuw nsw i64 %133, 1
  %138 = icmp eq i64 %137, %124
  br i1 %138, label %139, label %132, !llvm.loop !13

139:                                              ; preds = %132, %121
  %140 = sext i32 %122 to i64
  %141 = getelementptr inbounds [200 x i32], [200 x i32]* %2, i64 0, i64 %140
  %142 = load i32, i32* %141, align 4, !tbaa !5
  %143 = call i32 (i8*, ...) @printf(i8* nonnull dereferenceable(1) getelementptr inbounds ([3 x i8], [3 x i8]* @.str.1, i64 0, i64 0), i32 %142) #4
  call void @llvm.lifetime.end.p0i8(i64 4, i8* nonnull %8) #4
  call void @llvm.lifetime.end.p0i8(i64 4, i8* nonnull %7) #4
  call void @llvm.lifetime.end.p0i8(i64 800, i8* nonnull %6) #4
  call void @llvm.lifetime.end.p0i8(i64 800, i8* nonnull %5) #4
  ret void

144:                                              ; preds = %56
  %145 = getelementptr inbounds [200 x i32], [200 x i32]* %1, i64 0, i64 %50
  store i32 %60, i32* %145, align 4, !tbaa !5
  store i32 %57, i32* %59, align 8, !tbaa !5
  br label %146

146:                                              ; preds = %144, %56
  %147 = phi i32 [ %57, %144 ], [ %60, %56 ]
  %148 = add i64 %49, -2
  %149 = icmp eq i64 %148, 0
  br i1 %149, label %62, label %46, !llvm.loop !14

150:                                              ; preds = %98
  %151 = getelementptr inbounds [200 x i32], [200 x i32]* %2, i64 0, i64 %92
  store i32 %102, i32* %151, align 4, !tbaa !5
  store i32 %99, i32* %101, align 8, !tbaa !5
  br label %152

152:                                              ; preds = %150, %98
  %153 = phi i32 [ %99, %150 ], [ %102, %98 ]
  %154 = add i64 %91, -2
  %155 = icmp eq i64 %154, 0
  br i1 %155, label %104, label %88, !llvm.loop !14
}

; Function Attrs: argmemonly mustprogress nofree nosync nounwind willreturn
declare void @llvm.lifetime.start.p0i8(i64 immarg, i8* nocapture) #1

; Function Attrs: nofree nounwind
declare noundef i32 @__isoc99_scanf(i8* nocapture noundef readonly, ...) local_unnamed_addr #2

; Function Attrs: nofree nounwind sspstrong uwtable
define dso_local void @f1(i32* %0, i32 %1) local_unnamed_addr #0 {
  %3 = icmp sgt i32 %1, 0
  br i1 %3, label %4, label %12

4:                                                ; preds = %2
  %5 = zext i32 %1 to i64
  br label %6

6:                                                ; preds = %4, %6
  %7 = phi i64 [ 0, %4 ], [ %10, %6 ]
  %8 = getelementptr inbounds i32, i32* %0, i64 %7
  %9 = tail call i32 (i8*, ...) @__isoc99_scanf(i8* getelementptr inbounds ([3 x i8], [3 x i8]* @.str.1, i64 0, i64 0), i32* %8)
  %10 = add nuw nsw i64 %7, 1
  %11 = icmp eq i64 %10, %5
  br i1 %11, label %12, label %6, !llvm.loop !9

12:                                               ; preds = %6, %2
  ret void
}

; Function Attrs: nofree norecurse nosync nounwind sspstrong uwtable
define dso_local void @f2(i32* nocapture %0, i32 %1) local_unnamed_addr #3 {
  %3 = icmp sgt i32 %1, 1
  br i1 %3, label %4, label %43

4:                                                ; preds = %2
  %5 = add nsw i32 %1, -1
  %6 = zext i32 %5 to i64
  %7 = and i64 %6, 1
  %8 = icmp eq i32 %5, 1
  %9 = and i64 %6, 4294967294
  %10 = icmp eq i64 %7, 0
  br label %11

11:                                               ; preds = %4, %40
  %12 = phi i32 [ %41, %40 ], [ 0, %4 ]
  %13 = load i32, i32* %0, align 4, !tbaa !5
  br i1 %8, label %30, label %14

14:                                               ; preds = %11, %46
  %15 = phi i32 [ %47, %46 ], [ %13, %11 ]
  %16 = phi i64 [ %26, %46 ], [ 0, %11 ]
  %17 = phi i64 [ %48, %46 ], [ %9, %11 ]
  %18 = or i64 %16, 1
  %19 = getelementptr inbounds i32, i32* %0, i64 %18
  %20 = load i32, i32* %19, align 4, !tbaa !5
  %21 = icmp sgt i32 %15, %20
  br i1 %21, label %22, label %24

22:                                               ; preds = %14
  %23 = getelementptr inbounds i32, i32* %0, i64 %16
  store i32 %20, i32* %23, align 4, !tbaa !5
  store i32 %15, i32* %19, align 4, !tbaa !5
  br label %24

24:                                               ; preds = %22, %14
  %25 = phi i32 [ %15, %22 ], [ %20, %14 ]
  %26 = add nuw nsw i64 %16, 2
  %27 = getelementptr inbounds i32, i32* %0, i64 %26
  %28 = load i32, i32* %27, align 4, !tbaa !5
  %29 = icmp sgt i32 %25, %28
  br i1 %29, label %44, label %46

30:                                               ; preds = %46, %11
  %31 = phi i32 [ %13, %11 ], [ %47, %46 ]
  %32 = phi i64 [ 0, %11 ], [ %26, %46 ]
  br i1 %10, label %40, label %33

33:                                               ; preds = %30
  %34 = add nuw nsw i64 %32, 1
  %35 = getelementptr inbounds i32, i32* %0, i64 %34
  %36 = load i32, i32* %35, align 4, !tbaa !5
  %37 = icmp sgt i32 %31, %36
  br i1 %37, label %38, label %40

38:                                               ; preds = %33
  %39 = getelementptr inbounds i32, i32* %0, i64 %32
  store i32 %36, i32* %39, align 4, !tbaa !5
  store i32 %31, i32* %35, align 4, !tbaa !5
  br label %40

40:                                               ; preds = %38, %33, %30
  %41 = add nuw nsw i32 %12, 1
  %42 = icmp eq i32 %41, %5
  br i1 %42, label %43, label %11, !llvm.loop !11

43:                                               ; preds = %40, %2
  ret void

44:                                               ; preds = %24
  %45 = getelementptr inbounds i32, i32* %0, i64 %18
  store i32 %28, i32* %45, align 4, !tbaa !5
  store i32 %25, i32* %27, align 4, !tbaa !5
  br label %46

46:                                               ; preds = %44, %24
  %47 = phi i32 [ %25, %44 ], [ %28, %24 ]
  %48 = add i64 %17, -2
  %49 = icmp eq i64 %48, 0
  br i1 %49, label %30, label %14, !llvm.loop !14
}

; Function Attrs: nofree nounwind sspstrong uwtable
define dso_local void @f3(i32* nocapture readonly %0, i32 %1, i32* nocapture readonly %2, i32 %3) local_unnamed_addr #0 {
  %5 = icmp sgt i32 %1, 0
  br i1 %5, label %6, label %8

6:                                                ; preds = %4
  %7 = zext i32 %1 to i64
  br label %13

8:                                                ; preds = %13, %4
  %9 = add i32 %3, -1
  %10 = icmp sgt i32 %3, 1
  br i1 %10, label %11, label %27

11:                                               ; preds = %8
  %12 = zext i32 %9 to i64
  br label %20

13:                                               ; preds = %6, %13
  %14 = phi i64 [ 0, %6 ], [ %18, %13 ]
  %15 = getelementptr inbounds i32, i32* %0, i64 %14
  %16 = load i32, i32* %15, align 4, !tbaa !5
  %17 = tail call i32 (i8*, ...) @printf(i8* nonnull dereferenceable(1) getelementptr inbounds ([4 x i8], [4 x i8]* @.str.2, i64 0, i64 0), i32 %16)
  %18 = add nuw nsw i64 %14, 1
  %19 = icmp eq i64 %18, %7
  br i1 %19, label %8, label %13, !llvm.loop !12

20:                                               ; preds = %11, %20
  %21 = phi i64 [ 0, %11 ], [ %25, %20 ]
  %22 = getelementptr inbounds i32, i32* %2, i64 %21
  %23 = load i32, i32* %22, align 4, !tbaa !5
  %24 = tail call i32 (i8*, ...) @printf(i8* nonnull dereferenceable(1) getelementptr inbounds ([4 x i8], [4 x i8]* @.str.2, i64 0, i64 0), i32 %23)
  %25 = add nuw nsw i64 %21, 1
  %26 = icmp eq i64 %25, %12
  br i1 %26, label %27, label %20, !llvm.loop !13

27:                                               ; preds = %20, %8
  %28 = sext i32 %9 to i64
  %29 = getelementptr inbounds i32, i32* %2, i64 %28
  %30 = load i32, i32* %29, align 4, !tbaa !5
  %31 = tail call i32 (i8*, ...) @printf(i8* nonnull dereferenceable(1) getelementptr inbounds ([3 x i8], [3 x i8]* @.str.1, i64 0, i64 0), i32 %30)
  ret void
}

; Function Attrs: argmemonly mustprogress nofree nosync nounwind willreturn
declare void @llvm.lifetime.end.p0i8(i64 immarg, i8* nocapture) #1

; Function Attrs: nofree nounwind
declare noundef i32 @printf(i8* nocapture noundef readonly, ...) local_unnamed_addr #2


!llvm.module.flags = !{!0, !1, !2, !3}
!llvm.ident = !{!4}

!0 = !{i32 1, !"wchar_size", i32 4}
!1 = !{i32 7, !"PIC Level", i32 2}
!2 = !{i32 7, !"PIE Level", i32 2}
!3 = !{i32 7, !"uwtable", i32 1}
!4 = !{!"clang version 13.0.0"}
!5 = !{!6, !6, i64 0}
!6 = !{!"int", !7, i64 0}
!7 = !{!"omnipotent char", !8, i64 0}
!8 = !{!"Simple C/C++ TBAA"}
!9 = distinct !{!9, !10}
!10 = !{!"llvm.loop.mustprogress"}
!11 = distinct !{!11, !10}
!12 = distinct !{!12, !10}
!13 = distinct !{!13, !10}
!14 = distinct !{!14, !10}
